target datalayout = "e-m:e-p270:32:32-p271:32:32-p272:64:64-i64:64-i128:128-f80:128-n8:16:32:64-S128"
target triple = "x86_64-pc-linux-gnu"

%"class.gmx::SelectionTreeElement" = type { i32, %struct.gmx_ana_selvalue_t, ptr, i32, %union.anon.0, ptr, ptr, %"class.std::shared_ptr", %"class.std::shared_ptr", %"class.std::__cxx11::basic_string", %"struct.gmx::SelectionLocation" }
%struct.gmx_ana_selvalue_t = type { i32, i32, %union.anon, i32 }
%union.anon = type { ptr }
%union.anon.0 = type { %struct.anon }
%struct.anon = type { ptr, ptr, ptr, ptr }
%"class.std::shared_ptr" = type { %"class.std::__shared_ptr" }
%"class.std::__shared_ptr" = type { ptr, %"class.std::__shared_count" }
%"class.std::__shared_count" = type { ptr }
%"class.std::__cxx11::basic_string" = type { %"struct.std::__cxx11::basic_string<char>::_Alloc_hider", i64, %union.anon.2 }
%"struct.std::__cxx11::basic_string<char>::_Alloc_hider" = type { ptr }
%union.anon.2 = type { i64, [8 x i8] }
%"struct.gmx::SelectionLocation" = type { i32, i32 }
%"class.std::allocator" = type { i8 }
%"class.std::filesystem::__cxx11::path" = type { %"class.std::__cxx11::basic_string", %"struct.std::filesystem::__cxx11::path::_List" }
%"struct.std::filesystem::__cxx11::path::_List" = type { %"class.std::unique_ptr" }
%"class.std::unique_ptr" = type { %"struct.std::__uniq_ptr_data" }
%"struct.std::__uniq_ptr_data" = type { %"class.std::__uniq_ptr_impl" }
%"class.std::__uniq_ptr_impl" = type { %"class.std::tuple" }
%"class.std::tuple" = type { %"struct.std::_Tuple_impl" }
%"struct.std::_Tuple_impl" = type { %"struct.std::_Head_base.4" }
%"struct.std::_Head_base.4" = type { ptr }

@.str.20 = private unnamed_addr constant [127 x i8] c"generated/home/dtcxzyw/WorkSpace/Projects/compilers/llvm-opt-benchmark/bench/gromacs/gromacs/src/gromacs/selection/selelem.cpp\00", align 1
@.str.24 = private unnamed_addr constant [7 x i8] c"incons\00", align 1
@.str.25 = private unnamed_addr constant [50 x i8] c"Memory pooling not implemented for requested type\00", align 1

; Function Attrs: mustprogress uwtable
define void @_ZN3gmx20SelectionTreeElement14mempoolReserveEi(ptr noundef nonnull align 8 dereferenceable(168) %0, i32 noundef %1) #1 align 2 personality ptr @__gxx_personality_v0 {
  %3 = alloca ptr, align 8
  %4 = alloca i32, align 4
  %5 = alloca %"class.std::__cxx11::basic_string", align 8
  %6 = alloca %"class.std::allocator", align 1
  %7 = alloca ptr, align 8
  %8 = alloca i32, align 4
  %9 = alloca %"class.std::filesystem::__cxx11::path", align 8
  store ptr %0, ptr %3, align 8
  store i32 %1, ptr %4, align 4
  %10 = load ptr, ptr %3, align 8
  %11 = getelementptr inbounds %"class.gmx::SelectionTreeElement", ptr %10, i32 0, i32 5
  %12 = load ptr, ptr %11, align 8
  %13 = icmp ne ptr %12, null
  br i1 %13, label %15, label %14

14:                                               ; preds = %2
  br label %62

15:                                               ; preds = %2
  %16 = getelementptr inbounds %"class.gmx::SelectionTreeElement", ptr %10, i32 0, i32 1
  %17 = getelementptr inbounds %struct.gmx_ana_selvalue_t, ptr %16, i32 0, i32 0
  %18 = load i32, ptr %17, align 8
  switch i32 %18, label %44 [
    i32 1, label %19
    i32 2, label %28
    i32 5, label %37
  ]

19:                                               ; preds = %15
  %20 = getelementptr inbounds %"class.gmx::SelectionTreeElement", ptr %10, i32 0, i32 5
  %21 = load ptr, ptr %20, align 8
  %22 = load i32, ptr %4, align 4
  %23 = sext i32 %22 to i64
  %24 = mul i64 4, %23
  %25 = call noundef ptr @_Z22_gmx_sel_mempool_allocP17gmx_sel_mempool_tm(ptr noundef %21, i64 noundef %24)
  %26 = getelementptr inbounds %"class.gmx::SelectionTreeElement", ptr %10, i32 0, i32 1
  %27 = getelementptr inbounds %struct.gmx_ana_selvalue_t, ptr %26, i32 0, i32 2
  store ptr %25, ptr %27, align 8
  br label %62

28:                                               ; preds = %15
  %29 = getelementptr inbounds %"class.gmx::SelectionTreeElement", ptr %10, i32 0, i32 5
  %30 = load ptr, ptr %29, align 8
  %31 = load i32, ptr %4, align 4
  %32 = sext i32 %31 to i64
  %33 = mul i64 4, %32
  %34 = call noundef ptr @_Z22_gmx_sel_mempool_allocP17gmx_sel_mempool_tm(ptr noundef %30, i64 noundef %33)
  %35 = getelementptr inbounds %"class.gmx::SelectionTreeElement", ptr %10, i32 0, i32 1
  %36 = getelementptr inbounds %struct.gmx_ana_selvalue_t, ptr %35, i32 0, i32 2
  store ptr %34, ptr %36, align 8
  br label %62

37:                                               ; preds = %15
  %38 = getelementptr inbounds %"class.gmx::SelectionTreeElement", ptr %10, i32 0, i32 5
  %39 = load ptr, ptr %38, align 8
  %40 = getelementptr inbounds %"class.gmx::SelectionTreeElement", ptr %10, i32 0, i32 1
  %41 = getelementptr inbounds %struct.gmx_ana_selvalue_t, ptr %40, i32 0, i32 2
  %42 = load ptr, ptr %41, align 8
  %43 = load i32, ptr %4, align 4
  call void @_Z28_gmx_sel_mempool_alloc_groupP17gmx_sel_mempool_tP15gmx_ana_index_ti(ptr noundef %39, ptr noundef %42, i32 noundef %43)
  br label %62

44:                                               ; preds = %15
  call void @_ZNSaIcEC1Ev(ptr noundef nonnull align 1 dereferenceable(1) %6) #11
  invoke void @_ZNSt7__cxx1112basic_stringIcSt11char_traitsIcESaIcEEC2IS3_EEPKcRKS3_(ptr noundef nonnull align 8 dereferenceable(32) %5, ptr noundef @.str.25, ptr noundef nonnull align 1 dereferenceable(1) %6)
          to label %45 unwind label %48

45:                                               ; preds = %44
  invoke void @_ZNSt10filesystem7__cxx114pathC2IA127_cS1_EERKT_NS1_6formatE(ptr noundef nonnull align 8 dereferenceable(40) %9, ptr noundef nonnull align 1 dereferenceable(127) @.str.20, i8 noundef zeroext 2)
          to label %46 unwind label %52

46:                                               ; preds = %45
  invoke void @_Z18gmx_error_functionPKcRKNSt7__cxx1112basic_stringIcSt11char_traitsIcESaIcEEERKNSt10filesystem7__cxx114pathEi(ptr noundef @.str.24, ptr noundef nonnull align 8 dereferenceable(32) %5, ptr noundef nonnull align 8 dereferenceable(40) %9, i32 noundef 257) #14
          to label %47 unwind label %56

47:                                               ; preds = %46
  unreachable

48:                                               ; preds = %44
  %49 = landingpad { ptr, i32 }
          cleanup
  %50 = extractvalue { ptr, i32 } %49, 0
  store ptr %50, ptr %7, align 8
  %51 = extractvalue { ptr, i32 } %49, 1
  store i32 %51, ptr %8, align 4
  br label %61

52:                                               ; preds = %45
  %53 = landingpad { ptr, i32 }
          cleanup
  %54 = extractvalue { ptr, i32 } %53, 0
  store ptr %54, ptr %7, align 8
  %55 = extractvalue { ptr, i32 } %53, 1
  store i32 %55, ptr %8, align 4
  br label %60

56:                                               ; preds = %46
  %57 = landingpad { ptr, i32 }
          cleanup
  %58 = extractvalue { ptr, i32 } %57, 0
  store ptr %58, ptr %7, align 8
  %59 = extractvalue { ptr, i32 } %57, 1
  store i32 %59, ptr %8, align 4
  call void @_ZNSt10filesystem7__cxx114pathD2Ev(ptr noundef nonnull align 8 dereferenceable(40) %9) #11
  br label %60

60:                                               ; preds = %56, %52
  call void @_ZNSt7__cxx1112basic_stringIcSt11char_traitsIcESaIcEED1Ev(ptr noundef nonnull align 8 dereferenceable(32) %5) #11
  br label %61

61:                                               ; preds = %60, %48
  call void @_ZNSaIcED1Ev(ptr noundef nonnull align 1 dereferenceable(1) %6) #11
  br label %63

62:                                               ; preds = %37, %28, %19, %14
  ret void

63:                                               ; preds = %61
  %64 = load ptr, ptr %7, align 8
  %65 = load i32, ptr %8, align 4
  %66 = insertvalue { ptr, i32 } poison, ptr %64, 0
  %67 = insertvalue { ptr, i32 } %66, i32 %65, 1
  resume { ptr, i32 } %67
}