; Function Attrs: mustprogress uwtable
define void @_ZN3gmx20SelectionTreeElement14mempoolReserveEi(ptr nocapture noundef nonnull align 8 dereferenceable(168) %0, i32 noundef %1) local_unnamed_addr #1 align 2 personality ptr @__gxx_personality_v0 {
  %3 = alloca %"class.std::__cxx11::basic_string", align 8
  %4 = alloca %"class.std::allocator", align 1
  %5 = alloca %"class.std::filesystem::__cxx11::path", align 8
  %6 = getelementptr inbounds i8, ptr %0, i64 80
  %7 = load ptr, ptr %6, align 8
  %.not = icmp eq ptr %7, null
  br i1 %.not, label %36, label %8

8:                                                ; preds = %2
  %9 = getelementptr inbounds i8, ptr %0, i64 8
  %10 = load i32, ptr %9, align 8
  switch i32 %10, label %24 [
    i32 1, label %11
    i32 2, label %16
    i32 5, label %21
  ]

11:                                               ; preds = %8
  %12 = sext i32 %1 to i64
  %13 = shl nsw i64 %12, 2
  %14 = tail call noundef ptr @_Z22_gmx_sel_mempool_allocP17gmx_sel_mempool_tm(ptr noundef nonnull %7, i64 noundef %13)
  %15 = getelementptr inbounds i8, ptr %0, i64 16
  store ptr %14, ptr %15, align 8
  br label %36

16:                                               ; preds = %8
  %17 = sext i32 %1 to i64
  %18 = shl nsw i64 %17, 2
  %19 = tail call noundef ptr @_Z22_gmx_sel_mempool_allocP17gmx_sel_mempool_tm(ptr noundef nonnull %7, i64 noundef %18)
  %20 = getelementptr inbounds i8, ptr %0, i64 16
  store ptr %19, ptr %20, align 8
  br label %36

21:                                               ; preds = %8
  %22 = getelementptr inbounds i8, ptr %0, i64 16
  %23 = load ptr, ptr %22, align 8
  tail call void @_Z28_gmx_sel_mempool_alloc_groupP17gmx_sel_mempool_tP15gmx_ana_index_ti(ptr noundef nonnull %7, ptr noundef %23, i32 noundef %1)
  br label %36

24:                                               ; preds = %8
  call void @_ZNSaIcEC1Ev(ptr noundef nonnull align 1 dereferenceable(1) %4) #17
  invoke void @_ZNSt7__cxx1112basic_stringIcSt11char_traitsIcESaIcEEC2IS3_EEPKcRKS3_(ptr noundef nonnull align 8 dereferenceable(32) %3, ptr noundef nonnull @.str.25, ptr noundef nonnull align 1 dereferenceable(1) %4)
          to label %25 unwind label %28

25:                                               ; preds = %24
  invoke void @_ZNSt10filesystem7__cxx114pathC2IA127_cS1_EERKT_NS1_6formatE(ptr noundef nonnull align 8 dereferenceable(40) %5, ptr noundef nonnull align 1 dereferenceable(127) @.str.20, i8 noundef zeroext 2)
          to label %26 unwind label %30

26:                                               ; preds = %25
  invoke void @_Z18gmx_error_functionPKcRKNSt7__cxx1112basic_stringIcSt11char_traitsIcESaIcEEERKNSt10filesystem7__cxx114pathEi(ptr noundef nonnull @.str.24, ptr noundef nonnull align 8 dereferenceable(32) %3, ptr noundef nonnull align 8 dereferenceable(40) %5, i32 noundef 257) #19
          to label %27 unwind label %32

27:                                               ; preds = %26
  unreachable

28:                                               ; preds = %24
  %29 = landingpad { ptr, i32 }
          cleanup
  br label %35

30:                                               ; preds = %25
  %31 = landingpad { ptr, i32 }
          cleanup
  br label %34

32:                                               ; preds = %26
  %33 = landingpad { ptr, i32 }
          cleanup
  call void @_ZNSt10filesystem7__cxx114pathD2Ev(ptr noundef nonnull align 8 dereferenceable(40) %5) #17
  br label %34

34:                                               ; preds = %32, %30
  %.pn = phi { ptr, i32 } [ %33, %32 ], [ %31, %30 ]
  call void @_ZNSt7__cxx1112basic_stringIcSt11char_traitsIcESaIcEED1Ev(ptr noundef nonnull align 8 dereferenceable(32) %3) #17
  br label %35

35:                                               ; preds = %34, %28
  %.pn.pn = phi { ptr, i32 } [ %.pn, %34 ], [ %29, %28 ]
  call void @_ZNSaIcED1Ev(ptr noundef nonnull align 1 dereferenceable(1) %4) #17
  resume { ptr, i32 } %.pn.pn

36:                                               ; preds = %2, %21, %16, %11
  ret void
}